target datalayout = "e-m:e-p270:32:32-p271:32:32-p272:64:64-i64:64-i128:128-f80:128-n8:16:32:64-S128"
target triple = "x86_64-pc-linux-gnu"

%"struct.cv::detail::CheckContext" = type { ptr, ptr, i32, i32, ptr, ptr, ptr }
%"class.cv::details::FastX" = type { %"class.cv::Feature2D", %"struct.cv::details::FastX::Parameters" }
%"class.cv::Feature2D" = type { %"class.cv::Algorithm" }
%"class.cv::Algorithm" = type { ptr }
%"struct.cv::details::FastX::Parameters" = type <{ float, float, i32, i32, i32, i8, i8, [2 x i8] }>

@_ZZN2cv7details5FastX11reconfigureERKNS1_10ParametersEE15__cv_check__360 = internal constant %"struct.cv::detail::CheckContext" { ptr @.str, ptr @.str.2, i32 360, i32 0, ptr @.str.3, ptr @.str.4, ptr @.str.5 }, align 8

; Function Attrs: mustprogress uwtable
define hidden void @_ZN2cv7details5FastX11reconfigureERKNS1_10ParametersE(ptr noundef nonnull align 8 dereferenceable(32) %0, ptr noundef nonnull align 4 dereferenceable(22) %1) #5 align 2 {
  %3 = alloca ptr, align 8
  %4 = alloca ptr, align 8
  store ptr %0, ptr %3, align 8, !tbaa !9
  store ptr %1, ptr %4, align 8, !tbaa !14
  %5 = load ptr, ptr %3, align 8
  br label %6

6:                                                ; preds = %2
  %7 = load ptr, ptr %4, align 8, !tbaa !14
  %8 = getelementptr inbounds nuw %"struct.cv::details::FastX::Parameters", ptr %7, i32 0, i32 3
  %9 = load i32, ptr %8, align 4, !tbaa !25
  %10 = icmp sge i32 %9, 0
  br i1 %10, label %11, label %20

11:                                               ; preds = %6
  %12 = load ptr, ptr %4, align 8, !tbaa !14
  %13 = getelementptr inbounds nuw %"struct.cv::details::FastX::Parameters", ptr %12, i32 0, i32 3
  %14 = load i32, ptr %13, align 4, !tbaa !25
  %15 = load ptr, ptr %4, align 8, !tbaa !14
  %16 = getelementptr inbounds nuw %"struct.cv::details::FastX::Parameters", ptr %15, i32 0, i32 4
  %17 = load i32, ptr %16, align 4, !tbaa !26
  %18 = icmp sle i32 %14, %17
  br i1 %18, label %19, label %20

19:                                               ; preds = %11
  br label %24

20:                                               ; preds = %11, %6
  %21 = load ptr, ptr %4, align 8, !tbaa !14
  %22 = getelementptr inbounds nuw %"struct.cv::details::FastX::Parameters", ptr %21, i32 0, i32 3
  %23 = load i32, ptr %22, align 4, !tbaa !25
  call void @_ZN2cv6detail17check_failed_autoEiRKNS0_12CheckContextE(i32 noundef %23, ptr noundef nonnull align 8 dereferenceable(48) @_ZZN2cv7details5FastX11reconfigureERKNS1_10ParametersEE15__cv_check__360) #25
  unreachable

24:                                               ; preds = %19
  br label %25

25:                                               ; preds = %24
  %26 = load ptr, ptr %4, align 8, !tbaa !14
  %27 = getelementptr inbounds nuw %"class.cv::details::FastX", ptr %5, i32 0, i32 1
  call void @llvm.memcpy.p0.p0.i64(ptr align 8 %27, ptr align 4 %26, i64 22, i1 false), !tbaa.struct !29
  ret void
}

; Function Attrs: mustprogress nounwind uwtable
define linkonce_odr hidden void @_ZN2cv7details5FastX10ParametersC2Ev(ptr noundef nonnull align 4 dereferenceable(22) %0) unnamed_addr #7 comdat align 2 {
  %2 = alloca ptr, align 8
  store ptr %0, ptr %2, align 8, !tbaa !14
  %3 = load ptr, ptr %2, align 8
  %4 = getelementptr inbounds nuw %"struct.cv::details::FastX::Parameters", ptr %3, i32 0, i32 0
  store float 4.000000e+01, ptr %4, align 4, !tbaa !20
  %5 = getelementptr inbounds nuw %"struct.cv::details::FastX::Parameters", ptr %3, i32 0, i32 1
  store float 0x3FE921FB60000000, ptr %5, align 4, !tbaa !23
  %6 = getelementptr inbounds nuw %"struct.cv::details::FastX::Parameters", ptr %3, i32 0, i32 2
  store i32 2, ptr %6, align 4, !tbaa !24
  %7 = getelementptr inbounds nuw %"struct.cv::details::FastX::Parameters", ptr %3, i32 0, i32 3
  store i32 2, ptr %7, align 4, !tbaa !25
  %8 = getelementptr inbounds nuw %"struct.cv::details::FastX::Parameters", ptr %3, i32 0, i32 4
  store i32 5, ptr %8, align 4, !tbaa !26
  %9 = getelementptr inbounds nuw %"struct.cv::details::FastX::Parameters", ptr %3, i32 0, i32 6
  store i8 1, ptr %9, align 1, !tbaa !27
  %10 = getelementptr inbounds nuw %"struct.cv::details::FastX::Parameters", ptr %3, i32 0, i32 5
  store i8 1, ptr %10, align 4, !tbaa !28
  ret void
}

; Function Attrs: inlinehint mustprogress nounwind uwtable
define linkonce_odr hidden void @_ZN2cv9Feature2DC2Ev(ptr noundef nonnull align 8 dereferenceable(8) %0, ptr noundef %1) unnamed_addr #6 comdat align 2 {
  %3 = alloca ptr, align 8
  %4 = alloca ptr, align 8
  store ptr %0, ptr %3, align 8, !tbaa !18
  store ptr %1, ptr %4, align 8, !tbaa !12
  %5 = load ptr, ptr %3, align 8
  %6 = load ptr, ptr %4, align 8
  %7 = load ptr, ptr %6, align 8
  store ptr %7, ptr %5, align 8, !tbaa !16
  %8 = getelementptr inbounds ptr, ptr %6, i64 1
  %9 = load ptr, ptr %8, align 8
  %10 = load ptr, ptr %5, align 8, !tbaa !16
  %11 = getelementptr i8, ptr %10, i64 -80
  %12 = load i64, ptr %11, align 8
  %13 = getelementptr inbounds i8, ptr %5, i64 %12
  store ptr %9, ptr %13, align 8, !tbaa !16
  ret void
}

; Function Attrs: mustprogress uwtable
define hidden void @_ZN2cv7details5FastXC2ERKNS1_10ParametersE(ptr noundef nonnull align 8 dereferenceable(32) %0, ptr noundef %1, ptr noundef nonnull align 4 dereferenceable(22) %2) unnamed_addr #5 align 2 personality ptr @__gxx_personality_v0 {
  %4 = alloca ptr, align 8
  %5 = alloca ptr, align 8
  %6 = alloca ptr, align 8
  %7 = alloca ptr, align 8
  %8 = alloca i32, align 4
  store ptr %0, ptr %4, align 8, !tbaa !9
  store ptr %1, ptr %5, align 8, !tbaa !12
  store ptr %2, ptr %6, align 8, !tbaa !14
  %9 = load ptr, ptr %4, align 8
  %10 = load ptr, ptr %5, align 8
  %11 = getelementptr inbounds ptr, ptr %10, i64 1
  call void @_ZN2cv9Feature2DC2Ev(ptr noundef nonnull align 8 dereferenceable(8) %9, ptr noundef %11)
  %12 = load ptr, ptr %10, align 8
  store ptr %12, ptr %9, align 8, !tbaa !16
  %13 = getelementptr inbounds ptr, ptr %10, i64 3
  %14 = load ptr, ptr %13, align 8
  %15 = load ptr, ptr %9, align 8, !tbaa !16
  %16 = getelementptr i8, ptr %15, i64 -80
  %17 = load i64, ptr %16, align 8
  %18 = getelementptr inbounds i8, ptr %9, i64 %17
  store ptr %14, ptr %18, align 8, !tbaa !16
  %19 = getelementptr inbounds nuw %"class.cv::details::FastX", ptr %9, i32 0, i32 1
  invoke void @_ZN2cv7details5FastX10ParametersC2Ev(ptr noundef nonnull align 4 dereferenceable(22) %19)
          to label %20 unwind label %23

20:                                               ; preds = %3
  %21 = load ptr, ptr %6, align 8, !tbaa !14
  invoke void @_ZN2cv7details5FastX11reconfigureERKNS1_10ParametersE(ptr noundef nonnull align 8 dereferenceable(32) %9, ptr noundef nonnull align 4 dereferenceable(22) %21)
          to label %22 unwind label %23

22:                                               ; preds = %20
  ret void

23:                                               ; preds = %20, %3
  %24 = landingpad { ptr, i32 }
          cleanup
  %25 = extractvalue { ptr, i32 } %24, 0
  store ptr %25, ptr %7, align 8
  %26 = extractvalue { ptr, i32 } %24, 1
  store i32 %26, ptr %8, align 4
  %27 = getelementptr inbounds ptr, ptr %10, i64 1
  call void @_ZN2cv9Feature2DD2Ev(ptr noundef nonnull align 8 dereferenceable(8) %9, ptr noundef %27) #3
  br label %28

28:                                               ; preds = %23
  %29 = load ptr, ptr %7, align 8
  %30 = load i32, ptr %8, align 4
  %31 = insertvalue { ptr, i32 } poison, ptr %29, 0
  %32 = insertvalue { ptr, i32 } %31, i32 %30, 1
  resume { ptr, i32 } %32
}