; Function Attrs: mustprogress uwtable
define hidden void @_ZN2cv7details5FastXC2ERKNS1_10ParametersE(ptr noundef nonnull align 8 dereferenceable(32) initializes((0, 30)) %0, ptr noundef %1, ptr noundef nonnull readonly align 4 captures(none) dereferenceable(22) %2) unnamed_addr #5 align 2 personality ptr @__gxx_personality_v0 {
  %4 = getelementptr inbounds nuw i8, ptr %1, i64 8
  %5 = load ptr, ptr %4, align 8
  store ptr %5, ptr %0, align 8, !tbaa !3
  %6 = getelementptr inbounds nuw i8, ptr %1, i64 16
  %7 = load ptr, ptr %6, align 8
  %8 = getelementptr i8, ptr %5, i64 -80
  %9 = load i64, ptr %8, align 8
  %10 = getelementptr inbounds i8, ptr %0, i64 %9
  store ptr %7, ptr %10, align 8, !tbaa !3
  %11 = load ptr, ptr %1, align 8
  store ptr %11, ptr %0, align 8, !tbaa !3
  %12 = getelementptr inbounds nuw i8, ptr %1, i64 24
  %13 = load ptr, ptr %12, align 8
  %14 = getelementptr i8, ptr %11, i64 -80
  %15 = load i64, ptr %14, align 8
  %16 = getelementptr inbounds i8, ptr %0, i64 %15
  store ptr %13, ptr %16, align 8, !tbaa !3
  %17 = getelementptr inbounds nuw i8, ptr %0, i64 8
  store float 4.000000e+01, ptr %17, align 8, !tbaa !6
  %18 = getelementptr inbounds nuw i8, ptr %0, i64 12
  store float 0x3FE921FB60000000, ptr %18, align 4, !tbaa !12
  %19 = getelementptr inbounds nuw i8, ptr %0, i64 16
  store i32 2, ptr %19, align 8, !tbaa !13
  %20 = getelementptr inbounds nuw i8, ptr %0, i64 20
  store i32 2, ptr %20, align 4, !tbaa !14
  %21 = getelementptr inbounds nuw i8, ptr %0, i64 24
  store i32 5, ptr %21, align 8, !tbaa !15
  %22 = getelementptr inbounds nuw i8, ptr %0, i64 29
  store i8 1, ptr %22, align 1, !tbaa !16
  %23 = getelementptr inbounds nuw i8, ptr %0, i64 28
  store i8 1, ptr %23, align 4, !tbaa !17
  %24 = getelementptr inbounds nuw i8, ptr %2, i64 12
  %25 = load i32, ptr %24, align 4, !tbaa !14
  %26 = icmp slt i32 %25, 0
  %27 = getelementptr inbounds nuw i8, ptr %2, i64 16
  %28 = load i32, ptr %27, align 4
  %.not.i = icmp sgt i32 %25, %28
  %or.cond.i = select i1 %26, i1 true, i1 %.not.i
  br i1 %or.cond.i, label %29, label %30

29:                                               ; preds = %3
  invoke void @_ZN2cv6detail17check_failed_autoEiRKNS0_12CheckContextE(i32 noundef %25, ptr noundef nonnull align 8 dereferenceable(48) @_ZZN2cv7details5FastX11reconfigureERKNS1_10ParametersEE15__cv_check__360) #36
          to label %.noexc unwind label %31

.noexc:                                           ; preds = %29
  unreachable

30:                                               ; preds = %3
  tail call void @llvm.memcpy.p0.p0.i64(ptr noundef nonnull align 8 dereferenceable(22) %17, ptr noundef nonnull readonly align 4 dereferenceable(22) %2, i64 22, i1 false), !tbaa.struct !18
  ret void

31:                                               ; preds = %29
  %32 = landingpad { ptr, i32 }
          cleanup
  tail call void @_ZN2cv9Feature2DD2Ev(ptr noundef nonnull align 8 dereferenceable(8) %0, ptr noundef nonnull %4) #37
  resume { ptr, i32 } %32
}